; Function Attrs: nounwind uwtable
define dso_local void @makeTorus(i32 noundef %0, i32 noundef %1, ptr noundef readonly captures(none) %2) local_unnamed_addr #0 {
  %.not44 = icmp eq i32 %0, 0
  br i1 %.not44, label %.preheader41, label %.preheader42.lr.ph

.preheader42.lr.ph:                               ; preds = %3
  %4 = icmp ugt i32 %1, 1
  br i1 %4, label %.preheader42.us, label %.preheader42

.preheader42.us:                                  ; preds = %.preheader42.lr.ph, %._crit_edge.us
  %.03646.us = phi i32 [ %8, %._crit_edge.us ], [ 0, %.preheader42.lr.ph ]
  %.03745.us = phi i32 [ %9, %._crit_edge.us ], [ 1, %.preheader42.lr.ph ]
  %invariant.op.us = add i32 %.03646.us, 1
  br label %5

5:                                                ; preds = %.preheader42.us, %5
  %.03543.us = phi i32 [ 1, %.preheader42.us ], [ %7, %5 ]
  %6 = add i32 %.03543.us, %.03646.us
  %.reass.us = add i32 %.03543.us, %invariant.op.us
  tail call void %2(i32 noundef %6, i32 noundef %.reass.us) #15
  %7 = add nuw i32 %.03543.us, 1
  %exitcond.not = icmp eq i32 %7, %1
  br i1 %exitcond.not, label %._crit_edge.us, label %5, !llvm.loop !18

._crit_edge.us:                                   ; preds = %5
  %8 = add i32 %.03646.us, %1
  tail call void %2(i32 noundef %invariant.op.us, i32 noundef %8) #15
  %9 = add i32 %.03745.us, 1
  %.not.us = icmp ugt i32 %9, %0
  br i1 %.not.us, label %.preheader.lr.ph, label %.preheader42.us, !llvm.loop !19

.preheader42:                                     ; preds = %.preheader42.lr.ph, %.preheader42
  %.03646 = phi i32 [ %11, %.preheader42 ], [ 0, %.preheader42.lr.ph ]
  %.03745 = phi i32 [ %12, %.preheader42 ], [ 1, %.preheader42.lr.ph ]
  %10 = add i32 %.03646, 1
  %11 = add i32 %.03646, %1
  tail call void %2(i32 noundef %10, i32 noundef %11) #15
  %12 = add i32 %.03745, 1
  %.not = icmp ugt i32 %12, %0
  br i1 %.not, label %.preheader41, label %.preheader42, !llvm.loop !19

.preheader41:                                     ; preds = %.preheader42, %3
  %.not4048 = icmp eq i32 %1, 0
  br i1 %.not4048, label %._crit_edge50, label %.preheader.lr.ph

.preheader.lr.ph:                                 ; preds = %._crit_edge.us, %.preheader41
  %13 = icmp ugt i32 %0, 1
  %14 = add i32 %0, -1
  %15 = mul i32 %1, %14
  br i1 %13, label %.preheader.us, label %.preheader

.preheader.us:                                    ; preds = %.preheader.lr.ph, %._crit_edge.us51
  %.03449.us = phi i32 [ %24, %._crit_edge.us51 ], [ 1, %.preheader.lr.ph ]
  br label %16

16:                                               ; preds = %.preheader.us, %16
  %.047.us = phi i32 [ 1, %.preheader.us ], [ %22, %16 ]
  %17 = add i32 %.047.us, -1
  %18 = mul i32 %17, %1
  %19 = add i32 %18, %.03449.us
  %20 = mul i32 %.047.us, %1
  %21 = add i32 %20, %.03449.us
  tail call void %2(i32 noundef %19, i32 noundef %21) #15
  %22 = add nuw i32 %.047.us, 1
  %exitcond54.not = icmp eq i32 %22, %0
  br i1 %exitcond54.not, label %._crit_edge.us51, label %16, !llvm.loop !20

._crit_edge.us51:                                 ; preds = %16
  %23 = add i32 %.03449.us, %15
  tail call void %2(i32 noundef %.03449.us, i32 noundef %23) #15
  %24 = add i32 %.03449.us, 1
  %.not40.us = icmp ugt i32 %24, %1
  br i1 %.not40.us, label %._crit_edge50, label %.preheader.us, !llvm.loop !21

.preheader:                                       ; preds = %.preheader.lr.ph, %.preheader
  %.03449 = phi i32 [ %26, %.preheader ], [ 1, %.preheader.lr.ph ]
  %25 = add i32 %.03449, %15
  tail call void %2(i32 noundef %.03449, i32 noundef %25) #15
  %26 = add i32 %.03449, 1
  %.not40 = icmp ugt i32 %26, %1
  br i1 %.not40, label %._crit_edge50, label %.preheader, !llvm.loop !21

._crit_edge50:                                    ; preds = %.preheader, %._crit_edge.us51, %.preheader41
  ret void
}